; ModuleID = '58/1127.c'
source_filename = "58/1127.c"
target datalayout = "e-m:e-p270:32:32-p271:32:32-p272:64:64-i64:64-f80:128-n8:16:32:64-S128"
target triple = "x86_64-pc-linux-gnu"

@.str = private unnamed_addr constant [3 x i8] c"%d\00", align 1
@.str.1 = private unnamed_addr constant [3 x i8] c"1\0A\00", align 1
@.str.2 = private unnamed_addr constant [3 x i8] c"0\0A\00", align 1

; Function Attrs: noinline nounwind uwtable
define dso_local i32 @main() #0 {
  %1 = alloca i32, align 4
  %2 = alloca [90 x i8], align 16
  %3 = alloca i32, align 4
  %4 = alloca i32, align 4
  %5 = alloca i32, align 4
  store i32 0, i32* %1, align 4
  %6 = call i32 (i8*, ...) @__isoc99_scanf(i8* getelementptr inbounds ([3 x i8], [3 x i8]* @.str, i64 0, i64 0), i32* %4)
  %7 = getelementptr inbounds [90 x i8], [90 x i8]* %2, i64 0, i64 0
  %8 = call i32 (i8*, ...) bitcast (i32 (...)* @gets to i32 (i8*, ...)*)(i8* %7)
  store i32 0, i32* %3, align 4
  br label %9

9:                                                ; preds = %115, %0
  %10 = load i32, i32* %3, align 4
  %11 = load i32, i32* %4, align 4
  %12 = icmp slt i32 %10, %11
  br i1 %12, label %13, label %118

13:                                               ; preds = %9
  %14 = getelementptr inbounds [90 x i8], [90 x i8]* %2, i64 0, i64 0
  %15 = call i32 (i8*, ...) bitcast (i32 (...)* @gets to i32 (i8*, ...)*)(i8* %14)
  %16 = getelementptr inbounds [90 x i8], [90 x i8]* %2, i64 0, i64 0
  %17 = load i8, i8* %16, align 16
  %18 = sext i8 %17 to i32
  %19 = icmp eq i32 %18, 95
  br i1 %19, label %40, label %20

20:                                               ; preds = %13
  %21 = getelementptr inbounds [90 x i8], [90 x i8]* %2, i64 0, i64 0
  %22 = load i8, i8* %21, align 16
  %23 = sext i8 %22 to i32
  %24 = icmp sge i32 %23, 97
  br i1 %24, label %25, label %30

25:                                               ; preds = %20
  %26 = getelementptr inbounds [90 x i8], [90 x i8]* %2, i64 0, i64 0
  %27 = load i8, i8* %26, align 16
  %28 = sext i8 %27 to i32
  %29 = icmp sle i32 %28, 122
  br i1 %29, label %40, label %30

30:                                               ; preds = %25, %20
  %31 = getelementptr inbounds [90 x i8], [90 x i8]* %2, i64 0, i64 0
  %32 = load i8, i8* %31, align 16
  %33 = sext i8 %32 to i32
  %34 = icmp sge i32 %33, 65
  br i1 %34, label %35, label %112

35:                                               ; preds = %30
  %36 = getelementptr inbounds [90 x i8], [90 x i8]* %2, i64 0, i64 0
  %37 = load i8, i8* %36, align 16
  %38 = sext i8 %37 to i32
  %39 = icmp sle i32 %38, 90
  br i1 %39, label %40, label %112

40:                                               ; preds = %35, %25, %13
  store i32 1, i32* %5, align 4
  br label %41

41:                                               ; preds = %98, %40
  %42 = load i32, i32* %5, align 4
  %43 = sext i32 %42 to i64
  %44 = getelementptr inbounds [90 x i8], [90 x i8]* %2, i64 0, i64 0
  %45 = call i64 @strlen(i8* %44) #3
  %46 = icmp ult i64 %43, %45
  br i1 %46, label %47, label %101

47:                                               ; preds = %41
  %48 = load i32, i32* %5, align 4
  %49 = sext i32 %48 to i64
  %50 = getelementptr inbounds [90 x i8], [90 x i8]* %2, i64 0, i64 %49
  %51 = load i8, i8* %50, align 1
  %52 = sext i8 %51 to i32
  %53 = icmp eq i32 %52, 95
  br i1 %53, label %96, label %54

54:                                               ; preds = %47
  %55 = load i32, i32* %5, align 4
  %56 = sext i32 %55 to i64
  %57 = getelementptr inbounds [90 x i8], [90 x i8]* %2, i64 0, i64 %56
  %58 = load i8, i8* %57, align 1
  %59 = sext i8 %58 to i32
  %60 = icmp sge i32 %59, 97
  br i1 %60, label %61, label %68

61:                                               ; preds = %54
  %62 = load i32, i32* %5, align 4
  %63 = sext i32 %62 to i64
  %64 = getelementptr inbounds [90 x i8], [90 x i8]* %2, i64 0, i64 %63
  %65 = load i8, i8* %64, align 1
  %66 = sext i8 %65 to i32
  %67 = icmp sle i32 %66, 122
  br i1 %67, label %96, label %68

68:                                               ; preds = %61, %54
  %69 = load i32, i32* %5, align 4
  %70 = sext i32 %69 to i64
  %71 = getelementptr inbounds [90 x i8], [90 x i8]* %2, i64 0, i64 %70
  %72 = load i8, i8* %71, align 1
  %73 = sext i8 %72 to i32
  %74 = icmp sge i32 %73, 65
  br i1 %74, label %75, label %82

75:                                               ; preds = %68
  %76 = load i32, i32* %5, align 4
  %77 = sext i32 %76 to i64
  %78 = getelementptr inbounds [90 x i8], [90 x i8]* %2, i64 0, i64 %77
  %79 = load i8, i8* %78, align 1
  %80 = sext i8 %79 to i32
  %81 = icmp sle i32 %80, 90
  br i1 %81, label %96, label %82

82:                                               ; preds = %75, %68
  %83 = load i32, i32* %5, align 4
  %84 = sext i32 %83 to i64
  %85 = getelementptr inbounds [90 x i8], [90 x i8]* %2, i64 0, i64 %84
  %86 = load i8, i8* %85, align 1
  %87 = sext i8 %86 to i32
  %88 = icmp sge i32 %87, 48
  br i1 %88, label %89, label %97

89:                                               ; preds = %82
  %90 = load i32, i32* %5, align 4
  %91 = sext i32 %90 to i64
  %92 = getelementptr inbounds [90 x i8], [90 x i8]* %2, i64 0, i64 %91
  %93 = load i8, i8* %92, align 1
  %94 = sext i8 %93 to i32
  %95 = icmp sle i32 %94, 57
  br i1 %95, label %96, label %97

96:                                               ; preds = %89, %75, %61, %47
  br label %98

97:                                               ; preds = %89, %82
  br label %101

98:                                               ; preds = %96
  %99 = load i32, i32* %5, align 4
  %100 = add nsw i32 %99, 1
  store i32 %100, i32* %5, align 4
  br label %41

101:                                              ; preds = %97, %41
  %102 = load i32, i32* %5, align 4
  %103 = sext i32 %102 to i64
  %104 = getelementptr inbounds [90 x i8], [90 x i8]* %2, i64 0, i64 0
  %105 = call i64 @strlen(i8* %104) #3
  %106 = icmp eq i64 %103, %105
  br i1 %106, label %107, label %109

107:                                              ; preds = %101
  %108 = call i32 (i8*, ...) @printf(i8* getelementptr inbounds ([3 x i8], [3 x i8]* @.str.1, i64 0, i64 0))
  br label %111

109:                                              ; preds = %101
  %110 = call i32 (i8*, ...) @printf(i8* getelementptr inbounds ([3 x i8], [3 x i8]* @.str.2, i64 0, i64 0))
  br label %111

111:                                              ; preds = %109, %107
  br label %114

112:                                              ; preds = %35, %30
  %113 = call i32 (i8*, ...) @printf(i8* getelementptr inbounds ([3 x i8], [3 x i8]* @.str.2, i64 0, i64 0))
  br label %114

114:                                              ; preds = %112, %111
  br label %115

115:                                              ; preds = %114
  %116 = load i32, i32* %3, align 4
  %117 = add nsw i32 %116, 1
  store i32 %117, i32* %3, align 4
  br label %9

118:                                              ; preds = %9
  %119 = load i32, i32* %1, align 4
  ret i32 %119
}

declare dso_local i32 @__isoc99_scanf(i8*, ...) #1

declare dso_local i32 @gets(...) #1

; Function Attrs: nounwind readonly
declare dso_local i64 @strlen(i8*) #2

declare dso_local i32 @printf(i8*, ...) #1


!llvm.module.flags = !{!0}
!llvm.ident = !{!1}

!0 = !{i32 1, !"wchar_size", i32 4}
!1 = !{!"clang version 10.0.0-4ubuntu1 "}
